; Function Attrs: mustprogress uwtable
define dso_local void @_ZNK5vcpkg10VcpkgPaths15versions_outputEv(ptr dead_on_unwind noalias writable sret(%"struct.vcpkg::Path") align 8 %0, ptr noundef nonnull readonly align 8 captures(none) dereferenceable(440) %1) local_unnamed_addr #0 align 2 personality ptr @__gxx_personality_v0 {
  %3 = alloca %"struct.vcpkg::Path", align 8
  call void @llvm.lifetime.start.p0(i64 32, ptr nonnull %3) #28
  %4 = tail call noundef nonnull align 8 dereferenceable(32) ptr @_ZNK5vcpkg10VcpkgPaths10buildtreesEv(ptr noundef nonnull align 8 dereferenceable(440) %1)
  call void @_ZNKR5vcpkg4PathdvENS_10StringViewE(ptr dead_on_unwind nonnull writable sret(%"struct.vcpkg::Path") align 8 %3, ptr noundef nonnull align 8 dereferenceable(32) %4, ptr nonnull @.str.17, i64 11)
  invoke void @_ZNO5vcpkg4PathdvENS_10StringViewE(ptr dead_on_unwind writable sret(%"struct.vcpkg::Path") align 8 %0, ptr noundef nonnull align 8 dereferenceable(32) %3, ptr nonnull @.str.1, i64 8)
          to label %5 unwind label %14

5:                                                ; preds = %2
  %6 = load ptr, ptr %3, align 8, !tbaa !7
  %7 = getelementptr inbounds nuw i8, ptr %3, i64 16
  %8 = icmp eq ptr %6, %7
  br i1 %8, label %_ZNKSt7__cxx1112basic_stringIcSt11char_traitsIcESaIcEE11_M_is_localEv.exit.thread.i.i.i, label %_ZNKSt7__cxx1112basic_stringIcSt11char_traitsIcESaIcEE11_M_is_localEv.exit.i.i.i

_ZNKSt7__cxx1112basic_stringIcSt11char_traitsIcESaIcEE11_M_is_localEv.exit.thread.i.i.i: ; preds = %5
  %9 = getelementptr inbounds nuw i8, ptr %3, i64 8
  %10 = load i64, ptr %9, align 8, !tbaa !15
  %11 = icmp ult i64 %10, 16
  call void @llvm.assume(i1 %11)
  br label %_ZN5vcpkg4PathD2Ev.exit

_ZNKSt7__cxx1112basic_stringIcSt11char_traitsIcESaIcEE11_M_is_localEv.exit.i.i.i: ; preds = %5
  %12 = load i64, ptr %7, align 8, !tbaa !16
  %13 = add i64 %12, 1
  call void @_ZdlPvm(ptr noundef %6, i64 noundef %13) #29
  br label %_ZN5vcpkg4PathD2Ev.exit

_ZN5vcpkg4PathD2Ev.exit:                          ; preds = %_ZNKSt7__cxx1112basic_stringIcSt11char_traitsIcESaIcEE11_M_is_localEv.exit.thread.i.i.i, %_ZNKSt7__cxx1112basic_stringIcSt11char_traitsIcESaIcEE11_M_is_localEv.exit.i.i.i
  call void @llvm.lifetime.end.p0(i64 32, ptr nonnull %3) #28
  ret void

14:                                               ; preds = %2
  %15 = landingpad { ptr, i32 }
          cleanup
  %16 = load ptr, ptr %3, align 8, !tbaa !7
  %17 = getelementptr inbounds nuw i8, ptr %3, i64 16
  %18 = icmp eq ptr %16, %17
  br i1 %18, label %_ZNKSt7__cxx1112basic_stringIcSt11char_traitsIcESaIcEE11_M_is_localEv.exit.thread.i.i.i3, label %_ZNKSt7__cxx1112basic_stringIcSt11char_traitsIcESaIcEE11_M_is_localEv.exit.i.i.i2

_ZNKSt7__cxx1112basic_stringIcSt11char_traitsIcESaIcEE11_M_is_localEv.exit.thread.i.i.i3: ; preds = %14
  %19 = getelementptr inbounds nuw i8, ptr %3, i64 8
  %20 = load i64, ptr %19, align 8, !tbaa !15
  %21 = icmp ult i64 %20, 16
  call void @llvm.assume(i1 %21)
  br label %_ZN5vcpkg4PathD2Ev.exit4

_ZNKSt7__cxx1112basic_stringIcSt11char_traitsIcESaIcEE11_M_is_localEv.exit.i.i.i2: ; preds = %14
  %22 = load i64, ptr %17, align 8, !tbaa !16
  %23 = add i64 %22, 1
  call void @_ZdlPvm(ptr noundef %16, i64 noundef %23) #29
  br label %_ZN5vcpkg4PathD2Ev.exit4

_ZN5vcpkg4PathD2Ev.exit4:                         ; preds = %_ZNKSt7__cxx1112basic_stringIcSt11char_traitsIcESaIcEE11_M_is_localEv.exit.thread.i.i.i3, %_ZNKSt7__cxx1112basic_stringIcSt11char_traitsIcESaIcEE11_M_is_localEv.exit.i.i.i2
  call void @llvm.lifetime.end.p0(i64 32, ptr nonnull %3) #28
  resume { ptr, i32 } %15
}